target datalayout = "e-m:e-p270:32:32-p271:32:32-p272:64:64-i64:64-i128:128-f80:128-n8:16:32:64-S128"
target triple = "x86_64-pc-linux-gnu"

%struct.dirent = type { i64, i64, i16, i8, [256 x i8] }

@rb_cThread = external global i64, align 8
@.str.49 = private unnamed_addr constant [8 x i8] c"readdir\00", align 1
@.str.50 = private unnamed_addr constant [9 x i8] c"closedir\00", align 1

; Function Attrs: nounwind sspstrong uwtable
define internal void @check_closedir(ptr noundef %0) #0 {
  %2 = alloca ptr, align 8
  %3 = alloca i32, align 4
  store ptr %0, ptr %2, align 8, !tbaa !106
  %4 = load ptr, ptr %2, align 8, !tbaa !106
  %5 = call i32 @closedir(ptr noundef %4)
  %6 = icmp slt i32 %5, 0
  br i1 %6, label %7, label %13

7:                                                ; preds = %1
  br label %8

8:                                                ; preds = %7
  call void @llvm.lifetime.start.p0(i64 4, ptr %3) #26
  %9 = call ptr @rb_errno_ptr()
  %10 = load i32, ptr %9, align 4, !tbaa !21
  store i32 %10, ptr %3, align 4, !tbaa !21
  %11 = load i32, ptr %3, align 4, !tbaa !21
  call void @rb_syserr_fail(i32 noundef %11, ptr noundef @.str.50) #30
  unreachable

12:                                               ; No predecessors!
  br label %13

13:                                               ; preds = %12, %1
  ret void
}

; Function Attrs: nounwind sspstrong uwtable
define internal i32 @to_be_skipped(ptr noundef %0) #0 {
  %2 = alloca i32, align 4
  %3 = alloca ptr, align 8
  %4 = alloca ptr, align 8
  %5 = alloca i32, align 4
  store ptr %0, ptr %3, align 8, !tbaa !59
  call void @llvm.lifetime.start.p0(i64 8, ptr %4) #26
  %6 = load ptr, ptr %3, align 8, !tbaa !59
  %7 = getelementptr inbounds nuw %struct.dirent, ptr %6, i32 0, i32 4
  %8 = getelementptr inbounds [256 x i8], ptr %7, i64 0, i64 0
  store ptr %8, ptr %4, align 8, !tbaa !11
  %9 = load ptr, ptr %4, align 8, !tbaa !11
  %10 = getelementptr i8, ptr %9, i64 0
  %11 = load i8, ptr %10, align 1, !tbaa !26
  %12 = sext i8 %11 to i32
  %13 = icmp ne i32 %12, 46
  br i1 %13, label %14, label %15

14:                                               ; preds = %1
  store i32 0, ptr %2, align 4
  store i32 1, ptr %5, align 4
  br label %35

15:                                               ; preds = %1
  %16 = load ptr, ptr %4, align 8, !tbaa !11
  %17 = getelementptr i8, ptr %16, i64 1
  %18 = load i8, ptr %17, align 1, !tbaa !26
  %19 = icmp ne i8 %18, 0
  br i1 %19, label %21, label %20

20:                                               ; preds = %15
  store i32 1, ptr %2, align 4
  store i32 1, ptr %5, align 4
  br label %35

21:                                               ; preds = %15
  %22 = load ptr, ptr %4, align 8, !tbaa !11
  %23 = getelementptr i8, ptr %22, i64 1
  %24 = load i8, ptr %23, align 1, !tbaa !26
  %25 = sext i8 %24 to i32
  %26 = icmp ne i32 %25, 46
  br i1 %26, label %27, label %28

27:                                               ; preds = %21
  store i32 0, ptr %2, align 4
  store i32 1, ptr %5, align 4
  br label %35

28:                                               ; preds = %21
  %29 = load ptr, ptr %4, align 8, !tbaa !11
  %30 = getelementptr i8, ptr %29, i64 2
  %31 = load i8, ptr %30, align 1, !tbaa !26
  %32 = icmp ne i8 %31, 0
  br i1 %32, label %34, label %33

33:                                               ; preds = %28
  store i32 1, ptr %2, align 4
  store i32 1, ptr %5, align 4
  br label %35

34:                                               ; preds = %28
  store i32 0, ptr %2, align 4
  store i32 1, ptr %5, align 4
  br label %35

35:                                               ; preds = %34, %33, %27, %20, %14
  call void @llvm.lifetime.end.p0(i64 8, ptr %4) #26
  %36 = load i32, ptr %2, align 4
  ret i32 %36
}

; Function Attrs: nounwind sspstrong uwtable
define internal ptr @nogvl_readdir(ptr noundef %0) #0 {
  %2 = alloca ptr, align 8
  store ptr %0, ptr %2, align 8, !tbaa !14
  call void @rb_errno_set(i32 noundef 0)
  %3 = load ptr, ptr %2, align 8, !tbaa !14
  %4 = call ptr @readdir(ptr noundef %3)
  store ptr %4, ptr %2, align 8, !tbaa !14
  %5 = icmp eq ptr %4, null
  br i1 %5, label %6, label %12

6:                                                ; preds = %1
  %7 = call i32 @rb_errno()
  %8 = icmp ne i32 %7, 0
  br i1 %8, label %9, label %11

9:                                                ; preds = %6
  %10 = call ptr @rb_thread_call_with_gvl(ptr noundef @sys_failure, ptr noundef @.str.49)
  br label %11

11:                                               ; preds = %9, %6
  br label %12

12:                                               ; preds = %11, %1
  %13 = load ptr, ptr %2, align 8, !tbaa !14
  ret ptr %13
}

; Function Attrs: inlinehint nounwind sspstrong willreturn memory(none) uwtable
define internal i64 @RB_INT2FIX(i64 noundef %0) #12 {
  %2 = alloca i64, align 8
  %3 = alloca i64, align 8
  %4 = alloca i64, align 8
  %5 = alloca i64, align 8
  %6 = alloca i64, align 8
  %7 = alloca i64, align 8
  store i64 %0, ptr %2, align 8, !tbaa !7
  call void @llvm.lifetime.start.p0(i64 8, ptr %3) #26
  %8 = load i64, ptr %2, align 8, !tbaa !7
  store i64 %8, ptr %3, align 8, !tbaa !7
  call void @llvm.lifetime.start.p0(i64 8, ptr %4) #26
  %9 = load i64, ptr %3, align 8, !tbaa !7
  %10 = shl i64 %9, 1
  %11 = add i64 %10, 1
  store i64 %11, ptr %4, align 8, !tbaa !7
  call void @llvm.lifetime.start.p0(i64 8, ptr %5) #26
  %12 = load i64, ptr %4, align 8, !tbaa !7
  store i64 %12, ptr %5, align 8, !tbaa !7
  call void @llvm.lifetime.start.p0(i64 8, ptr %6) #26
  %13 = load i64, ptr %5, align 8, !tbaa !7
  store i64 %13, ptr %6, align 8, !tbaa !7
  call void @llvm.lifetime.start.p0(i64 8, ptr %7) #26
  %14 = load i64, ptr %6, align 8, !tbaa !7
  store i64 %14, ptr %7, align 8, !tbaa !7
  %15 = load i64, ptr %7, align 8, !tbaa !7
  call void @llvm.lifetime.end.p0(i64 8, ptr %7) #26
  call void @llvm.lifetime.end.p0(i64 8, ptr %6) #26
  call void @llvm.lifetime.end.p0(i64 8, ptr %5) #26
  call void @llvm.lifetime.end.p0(i64 8, ptr %4) #26
  call void @llvm.lifetime.end.p0(i64 8, ptr %3) #26
  ret i64 %15
}

; Function Attrs: nounwind sspstrong uwtable
define internal i32 @gc_for_fd_with_gvl(i32 noundef %0) #0 {
  %2 = alloca i32, align 4
  %3 = alloca i32, align 4
  store i32 %0, ptr %3, align 4, !tbaa !21
  %4 = load i64, ptr @rb_cThread, align 8, !tbaa !7
  %5 = icmp ne i64 %4, 0
  br i1 %5, label %6, label %10

6:                                                ; preds = %1
  %7 = call ptr @rb_thread_call_with_gvl(ptr noundef @with_gvl_gc_for_fd, ptr noundef %3)
  %8 = ptrtoint ptr %7 to i64
  %9 = trunc i64 %8 to i32
  store i32 %9, ptr %2, align 4
  br label %16

10:                                               ; preds = %1
  %11 = load i32, ptr %3, align 4, !tbaa !21
  %12 = call i32 @rb_gc_for_fd(i32 noundef %11)
  %13 = icmp ne i32 %12, 0
  %14 = select i1 %13, i64 20, i64 0
  %15 = trunc i64 %14 to i32
  store i32 %15, ptr %2, align 4
  br label %16

16:                                               ; preds = %10, %6
  %17 = load i32, ptr %2, align 4
  ret i32 %17
}

; Function Attrs: nounwind sspstrong uwtable
define internal ptr @nogvl_dir_empty_p(ptr noundef %0) #0 {
  %2 = alloca ptr, align 8
  %3 = alloca ptr, align 8
  %4 = alloca ptr, align 8
  %5 = alloca ptr, align 8
  %6 = alloca ptr, align 8
  %7 = alloca i64, align 8
  %8 = alloca i32, align 4
  %9 = alloca i32, align 4
  store ptr %0, ptr %3, align 8, !tbaa !14
  call void @llvm.lifetime.start.p0(i64 8, ptr %4) #26
  %10 = load ptr, ptr %3, align 8, !tbaa !14
  store ptr %10, ptr %4, align 8, !tbaa !11
  call void @llvm.lifetime.start.p0(i64 8, ptr %5) #26
  %11 = load ptr, ptr %4, align 8, !tbaa !11
  %12 = call ptr @opendir(ptr noundef %11)
  store ptr %12, ptr %5, align 8, !tbaa !106
  call void @llvm.lifetime.start.p0(i64 8, ptr %6) #26
  call void @llvm.lifetime.start.p0(i64 8, ptr %7) #26
  store i64 20, ptr %7, align 8, !tbaa !7
  %13 = load ptr, ptr %5, align 8, !tbaa !106
  %14 = icmp ne ptr %13, null
  br i1 %14, label %42, label %15

15:                                               ; preds = %1
  call void @llvm.lifetime.start.p0(i64 4, ptr %8) #26
  %16 = call ptr @rb_errno_ptr()
  %17 = load i32, ptr %16, align 4, !tbaa !21
  store i32 %17, ptr %8, align 4, !tbaa !21
  %18 = load i32, ptr %8, align 4, !tbaa !21
  %19 = call i32 @gc_for_fd_with_gvl(i32 noundef %18)
  switch i32 %19, label %20 [
    i32 0, label %29
  ]

20:                                               ; preds = %15
  %21 = load ptr, ptr %4, align 8, !tbaa !11
  %22 = call ptr @opendir(ptr noundef %21)
  store ptr %22, ptr %5, align 8, !tbaa !106
  %23 = load ptr, ptr %5, align 8, !tbaa !106
  %24 = icmp ne ptr %23, null
  br i1 %24, label %25, label %26

25:                                               ; preds = %20
  br label %38

26:                                               ; preds = %20
  %27 = call ptr @rb_errno_ptr()
  %28 = load i32, ptr %27, align 4, !tbaa !21
  store i32 %28, ptr %8, align 4, !tbaa !21
  br label %29

29:                                               ; preds = %15, %26
  %30 = load i32, ptr %8, align 4, !tbaa !21
  %31 = icmp eq i32 %30, 20
  br i1 %31, label %32, label %33

32:                                               ; preds = %29
  store ptr null, ptr %2, align 8
  store i32 1, ptr %9, align 4
  br label %39

33:                                               ; preds = %29
  %34 = load i32, ptr %8, align 4, !tbaa !21
  %35 = sext i32 %34 to i64
  %36 = call i64 @RB_INT2FIX(i64 noundef %35) #31
  %37 = inttoptr i64 %36 to ptr
  store ptr %37, ptr %2, align 8
  store i32 1, ptr %9, align 4
  br label %39

38:                                               ; preds = %25
  store i32 0, ptr %9, align 4
  br label %39

39:                                               ; preds = %38, %33, %32
  call void @llvm.lifetime.end.p0(i64 4, ptr %8) #26
  %40 = load i32, ptr %9, align 4
  switch i32 %40, label %57 [
    i32 0, label %41
  ]

41:                                               ; preds = %39
  br label %42

42:                                               ; preds = %41, %1
  br label %43

43:                                               ; preds = %52, %42
  %44 = load ptr, ptr %5, align 8, !tbaa !106
  %45 = call ptr @nogvl_readdir(ptr noundef %44)
  store ptr %45, ptr %6, align 8, !tbaa !59
  %46 = icmp ne ptr %45, null
  br i1 %46, label %47, label %53

47:                                               ; preds = %43
  %48 = load ptr, ptr %6, align 8, !tbaa !59
  %49 = call i32 @to_be_skipped(ptr noundef %48)
  %50 = icmp ne i32 %49, 0
  br i1 %50, label %52, label %51

51:                                               ; preds = %47
  store i64 0, ptr %7, align 8, !tbaa !7
  br label %53

52:                                               ; preds = %47
  br label %43, !llvm.loop !212

53:                                               ; preds = %51, %43
  %54 = load ptr, ptr %5, align 8, !tbaa !106
  call void @check_closedir(ptr noundef %54)
  %55 = load i64, ptr %7, align 8, !tbaa !7
  %56 = inttoptr i64 %55 to ptr
  store ptr %56, ptr %2, align 8
  store i32 1, ptr %9, align 4
  br label %57

57:                                               ; preds = %53, %39
  call void @llvm.lifetime.end.p0(i64 8, ptr %7) #26
  call void @llvm.lifetime.end.p0(i64 8, ptr %6) #26
  call void @llvm.lifetime.end.p0(i64 8, ptr %5) #26
  call void @llvm.lifetime.end.p0(i64 8, ptr %4) #26
  %58 = load ptr, ptr %2, align 8
  ret ptr %58
}