; Function Attrs: nounwind sspstrong uwtable
define internal ptr @nogvl_dir_empty_p(ptr noundef readonly captures(none) %0) #0 {
  %2 = alloca i32, align 4
  %3 = tail call ptr @opendir(ptr noundef %0)
  %.not = icmp eq ptr %3, null
  br i1 %.not, label %4, label %23

4:                                                ; preds = %1
  %5 = tail call ptr @rb_errno_ptr() #22
  %6 = load i32, ptr %5, align 4, !tbaa !58
  call void @llvm.lifetime.start.p0(i64 4, ptr nonnull %2)
  store i32 %6, ptr %2, align 4, !tbaa !58
  %7 = load i64, ptr @rb_cThread, align 8, !tbaa !7
  %.not.i = icmp eq i64 %7, 0
  br i1 %.not.i, label %8, label %gc_for_fd_with_gvl.exit

8:                                                ; preds = %4
  %9 = tail call i32 @rb_gc_for_fd(i32 noundef %6) #22
  %.not1.i = icmp eq i32 %9, 0
  call void @llvm.lifetime.end.p0(i64 4, ptr nonnull %2)
  br i1 %.not1.i, label %gc_for_fd_with_gvl.exit.thread, label %gc_for_fd_with_gvl.exit.thread32

gc_for_fd_with_gvl.exit:                          ; preds = %4
  %10 = call ptr @rb_thread_call_with_gvl(ptr noundef nonnull @with_gvl_gc_for_fd, ptr noundef nonnull %2) #22
  %11 = ptrtoint ptr %10 to i64
  call void @llvm.lifetime.end.p0(i64 4, ptr nonnull %2)
  %12 = and i64 %11, 4294967295
  %cond = icmp eq i64 %12, 0
  br i1 %cond, label %gc_for_fd_with_gvl.exit.thread, label %gc_for_fd_with_gvl.exit.thread32

gc_for_fd_with_gvl.exit.thread32:                 ; preds = %8, %gc_for_fd_with_gvl.exit
  %13 = call ptr @opendir(ptr noundef %0)
  %.not24 = icmp eq ptr %13, null
  br i1 %.not24, label %14, label %23

14:                                               ; preds = %gc_for_fd_with_gvl.exit.thread32
  %15 = call ptr @rb_errno_ptr() #22
  %16 = load i32, ptr %15, align 4, !tbaa !58
  br label %gc_for_fd_with_gvl.exit.thread

gc_for_fd_with_gvl.exit.thread:                   ; preds = %8, %gc_for_fd_with_gvl.exit, %14
  %.014 = phi i32 [ %6, %gc_for_fd_with_gvl.exit ], [ %16, %14 ], [ %6, %8 ]
  %17 = icmp eq i32 %.014, 20
  br i1 %17, label %.thread, label %18

18:                                               ; preds = %gc_for_fd_with_gvl.exit.thread
  %19 = sext i32 %.014 to i64
  %20 = shl nsw i64 %19, 1
  %21 = or disjoint i64 %20, 1
  %22 = inttoptr i64 %21 to ptr
  br label %.thread

23:                                               ; preds = %gc_for_fd_with_gvl.exit.thread32, %1
  %.017 = phi ptr [ %3, %1 ], [ %13, %gc_for_fd_with_gvl.exit.thread32 ]
  call void @rb_errno_set(i32 noundef 0) #22
  %24 = call ptr @readdir(ptr noundef nonnull %.017) #22
  %25 = icmp eq ptr %24, null
  br i1 %25, label %.critedge._crit_edge, label %nogvl_readdir.exit

.critedge._crit_edge:                             ; preds = %.critedge.backedge, %23
  %26 = call i32 @rb_errno() #22
  %.not.i27 = icmp eq i32 %26, 0
  br i1 %.not.i27, label %nogvl_readdir.exit.thread, label %27

27:                                               ; preds = %.critedge._crit_edge
  %28 = call ptr @rb_thread_call_with_gvl(ptr noundef nonnull @sys_failure, ptr noundef nonnull @.str.49) #22
  br label %nogvl_readdir.exit.thread

nogvl_readdir.exit:                               ; preds = %23, %.critedge.backedge
  %29 = phi ptr [ %37, %.critedge.backedge ], [ %24, %23 ]
  %30 = getelementptr inbounds nuw i8, ptr %29, i64 19
  %31 = load i8, ptr %30, align 1, !tbaa !19
  %.not.i28 = icmp eq i8 %31, 46
  br i1 %.not.i28, label %32, label %nogvl_readdir.exit.thread

32:                                               ; preds = %nogvl_readdir.exit
  %33 = getelementptr i8, ptr %29, i64 20
  %34 = load i8, ptr %33, align 1, !tbaa !19
  switch i8 %34, label %nogvl_readdir.exit.thread [
    i8 0, label %.critedge.backedge
    i8 46, label %to_be_skipped.exit
  ]

to_be_skipped.exit:                               ; preds = %32
  %35 = getelementptr i8, ptr %29, i64 21
  %36 = load i8, ptr %35, align 1, !tbaa !19
  %.not8.i.not = icmp eq i8 %36, 0
  br i1 %.not8.i.not, label %.critedge.backedge, label %nogvl_readdir.exit.thread

.critedge.backedge:                               ; preds = %to_be_skipped.exit, %32
  call void @rb_errno_set(i32 noundef 0) #22
  %37 = call ptr @readdir(ptr noundef nonnull %.017) #22
  %38 = icmp eq ptr %37, null
  br i1 %38, label %.critedge._crit_edge, label %nogvl_readdir.exit, !llvm.loop !201

nogvl_readdir.exit.thread:                        ; preds = %32, %nogvl_readdir.exit, %to_be_skipped.exit, %27, %.critedge._crit_edge
  %.015 = phi i64 [ 20, %.critedge._crit_edge ], [ 20, %27 ], [ 0, %to_be_skipped.exit ], [ 0, %nogvl_readdir.exit ], [ 0, %32 ]
  %39 = call i32 @closedir(ptr noundef nonnull %.017)
  %40 = icmp slt i32 %39, 0
  br i1 %40, label %41, label %check_closedir.exit

41:                                               ; preds = %nogvl_readdir.exit.thread
  %42 = call ptr @rb_errno_ptr() #22
  %43 = load i32, ptr %42, align 4, !tbaa !58
  call void @rb_syserr_fail(i32 noundef %43, ptr noundef nonnull @.str.50) #26
  unreachable

check_closedir.exit:                              ; preds = %nogvl_readdir.exit.thread
  %44 = inttoptr i64 %.015 to ptr
  br label %.thread

.thread:                                          ; preds = %gc_for_fd_with_gvl.exit.thread, %18, %check_closedir.exit
  %.1 = phi ptr [ %44, %check_closedir.exit ], [ null, %gc_for_fd_with_gvl.exit.thread ], [ %22, %18 ]
  ret ptr %.1
}